target datalayout = "e-m:e-p270:32:32-p271:32:32-p272:64:64-i64:64-i128:128-f80:128-n8:16:32:64-S128"
target triple = "x86_64-pc-linux-gnu"

@.str.111 = private unnamed_addr constant [8 x i8] c"M_quo: \00", align 1
@.str.112 = private unnamed_addr constant [8 x i8] c"M_bal: \00", align 1
@.str.113 = private unnamed_addr constant [8 x i8] c"M_dc2: \00", align 1
@.str.114 = private unnamed_addr constant [8 x i8] c"M_sn2: \00", align 1

; Function Attrs: nounwind uwtable
define ptr @Acb_NtkEcoSynthesize(ptr noundef %0) #0 {
  %2 = alloca ptr, align 8
  %3 = alloca i32, align 4
  %4 = alloca i32, align 4
  %5 = alloca ptr, align 8
  store ptr %0, ptr %2, align 8
  store i32 0, ptr %4, align 4
  %6 = load ptr, ptr %2, align 8
  %7 = call ptr @Gia_ManDup(ptr noundef %6)
  store ptr %7, ptr %5, align 8
  %8 = load i32, ptr %4, align 4
  %9 = icmp ne i32 %8, 0
  br i1 %9, label %10, label %12

10:                                               ; preds = %1
  %11 = call i32 (ptr, ...) @printf(ptr noundef @.str.111)
  br label %12

12:                                               ; preds = %10, %1
  %13 = load i32, ptr %4, align 4
  %14 = icmp ne i32 %13, 0
  br i1 %14, label %15, label %17

15:                                               ; preds = %12
  %16 = load ptr, ptr %5, align 8
  call void @Gia_ManPrintStats(ptr noundef %16, ptr noundef null)
  br label %17

17:                                               ; preds = %15, %12
  %18 = load ptr, ptr %5, align 8
  store ptr %18, ptr %2, align 8
  %19 = call ptr @Gia_ManAreaBalance(ptr noundef %18, i32 noundef 0, i32 noundef 0, i32 noundef 0, i32 noundef 0)
  store ptr %19, ptr %5, align 8
  %20 = load ptr, ptr %2, align 8
  call void @Gia_ManStop(ptr noundef %20)
  %21 = load i32, ptr %4, align 4
  %22 = icmp ne i32 %21, 0
  br i1 %22, label %23, label %25

23:                                               ; preds = %17
  %24 = call i32 (ptr, ...) @printf(ptr noundef @.str.112)
  br label %25

25:                                               ; preds = %23, %17
  %26 = load i32, ptr %4, align 4
  %27 = icmp ne i32 %26, 0
  br i1 %27, label %28, label %30

28:                                               ; preds = %25
  %29 = load ptr, ptr %5, align 8
  call void @Gia_ManPrintStats(ptr noundef %29, ptr noundef null)
  br label %30

30:                                               ; preds = %28, %25
  store i32 0, ptr %3, align 4
  br label %31

31:                                               ; preds = %48, %30
  %32 = load i32, ptr %3, align 4
  %33 = icmp slt i32 %32, 2
  br i1 %33, label %34, label %51

34:                                               ; preds = %31
  %35 = load ptr, ptr %5, align 8
  store ptr %35, ptr %2, align 8
  %36 = call ptr @Gia_ManCompress2(ptr noundef %35, i32 noundef 1, i32 noundef 0)
  store ptr %36, ptr %5, align 8
  %37 = load ptr, ptr %2, align 8
  call void @Gia_ManStop(ptr noundef %37)
  %38 = load i32, ptr %4, align 4
  %39 = icmp ne i32 %38, 0
  br i1 %39, label %40, label %42

40:                                               ; preds = %34
  %41 = call i32 (ptr, ...) @printf(ptr noundef @.str.113)
  br label %42

42:                                               ; preds = %40, %34
  %43 = load i32, ptr %4, align 4
  %44 = icmp ne i32 %43, 0
  br i1 %44, label %45, label %47

45:                                               ; preds = %42
  %46 = load ptr, ptr %5, align 8
  call void @Gia_ManPrintStats(ptr noundef %46, ptr noundef null)
  br label %47

47:                                               ; preds = %45, %42
  br label %48

48:                                               ; preds = %47
  %49 = load i32, ptr %3, align 4
  %50 = add nsw i32 %49, 1
  store i32 %50, ptr %3, align 4
  br label %31, !llvm.loop !184

51:                                               ; preds = %31
  %52 = load ptr, ptr %5, align 8
  store ptr %52, ptr %2, align 8
  %53 = call ptr @Gia_ManAigSyn2(ptr noundef %52, i32 noundef 0, i32 noundef 1, i32 noundef 0, i32 noundef 100, i32 noundef 0, i32 noundef 0, i32 noundef 0)
  store ptr %53, ptr %5, align 8
  %54 = load ptr, ptr %2, align 8
  call void @Gia_ManStop(ptr noundef %54)
  %55 = load i32, ptr %4, align 4
  %56 = icmp ne i32 %55, 0
  br i1 %56, label %57, label %59

57:                                               ; preds = %51
  %58 = call i32 (ptr, ...) @printf(ptr noundef @.str.114)
  br label %59

59:                                               ; preds = %57, %51
  %60 = load i32, ptr %4, align 4
  %61 = icmp ne i32 %60, 0
  br i1 %61, label %62, label %64

62:                                               ; preds = %59
  %63 = load ptr, ptr %5, align 8
  call void @Gia_ManPrintStats(ptr noundef %63, ptr noundef null)
  br label %64

64:                                               ; preds = %62, %59
  store i32 0, ptr %3, align 4
  br label %65

65:                                               ; preds = %82, %64
  %66 = load i32, ptr %3, align 4
  %67 = icmp slt i32 %66, 2
  br i1 %67, label %68, label %85

68:                                               ; preds = %65
  %69 = load ptr, ptr %5, align 8
  store ptr %69, ptr %2, align 8
  %70 = call ptr @Gia_ManCompress2(ptr noundef %69, i32 noundef 1, i32 noundef 0)
  store ptr %70, ptr %5, align 8
  %71 = load ptr, ptr %2, align 8
  call void @Gia_ManStop(ptr noundef %71)
  %72 = load i32, ptr %4, align 4
  %73 = icmp ne i32 %72, 0
  br i1 %73, label %74, label %76

74:                                               ; preds = %68
  %75 = call i32 (ptr, ...) @printf(ptr noundef @.str.113)
  br label %76

76:                                               ; preds = %74, %68
  %77 = load i32, ptr %4, align 4
  %78 = icmp ne i32 %77, 0
  br i1 %78, label %79, label %81

79:                                               ; preds = %76
  %80 = load ptr, ptr %5, align 8
  call void @Gia_ManPrintStats(ptr noundef %80, ptr noundef null)
  br label %81

81:                                               ; preds = %79, %76
  br label %82

82:                                               ; preds = %81
  %83 = load i32, ptr %3, align 4
  %84 = add nsw i32 %83, 1
  store i32 %84, ptr %3, align 4
  br label %65, !llvm.loop !185

85:                                               ; preds = %65
  %86 = load ptr, ptr %5, align 8
  ret ptr %86
}