; Function Attrs: nounwind uwtable
define ptr @Acb_NtkEcoSynthesize(ptr noundef %0) local_unnamed_addr #0 {
  %2 = tail call ptr @Gia_ManDup(ptr noundef %0) #31
  %3 = tail call ptr @Gia_ManAreaBalance(ptr noundef %2, i32 noundef 0, i32 noundef 0, i32 noundef 0, i32 noundef 0) #31
  tail call void @Gia_ManStop(ptr noundef %2) #31
  br label %4

4:                                                ; preds = %1, %4
  %.031 = phi ptr [ %3, %1 ], [ %6, %4 ]
  %5 = phi i1 [ true, %1 ], [ false, %4 ]
  %6 = tail call ptr @Gia_ManCompress2(ptr noundef %.031, i32 noundef 1, i32 noundef 0) #31
  tail call void @Gia_ManStop(ptr noundef %.031) #31
  br i1 %5, label %4, label %7, !llvm.loop !171

7:                                                ; preds = %4
  %8 = tail call ptr @Gia_ManAigSyn2(ptr noundef %6, i32 noundef 0, i32 noundef 1, i32 noundef 0, i32 noundef 100, i32 noundef 0, i32 noundef 0, i32 noundef 0) #31
  tail call void @Gia_ManStop(ptr noundef %6) #31
  br label %9

9:                                                ; preds = %7, %9
  %.133 = phi ptr [ %8, %7 ], [ %11, %9 ]
  %10 = phi i1 [ true, %7 ], [ false, %9 ]
  %11 = tail call ptr @Gia_ManCompress2(ptr noundef %.133, i32 noundef 1, i32 noundef 0) #31
  tail call void @Gia_ManStop(ptr noundef %.133) #31
  br i1 %10, label %9, label %12, !llvm.loop !172

12:                                               ; preds = %9
  ret ptr %11
}